; Function Attrs: mustprogress nofree norecurse nosync nounwind willreturn memory(read, inaccessiblemem: none) uwtable
define { ptr, i32 } @_ZNK10OpenSubdiv6v3_6_03Far10PatchTable16GetPatchVerticesERKNS2_11PatchHandleE(ptr nocapture noundef nonnull readonly align 8 dereferenceable(273) %0, ptr nocapture noundef nonnull readonly align 4 dereferenceable(12) %1) local_unnamed_addr #6 align 2 {
  %3 = load i32, ptr %1, align 4
  %4 = getelementptr inbounds nuw i8, ptr %0, i64 8
  %5 = sext i32 %3 to i64
  %6 = load ptr, ptr %4, align 8
  %7 = getelementptr inbounds %"struct.OpenSubdiv::v3_6_0::Far::PatchTable::PatchArray", ptr %6, i64 %5
  %8 = getelementptr inbounds nuw i8, ptr %7, i64 8
  %9 = load i32, ptr %8, align 4
  %10 = getelementptr inbounds nuw i8, ptr %1, i64 8
  %11 = load i32, ptr %10, align 4
  %12 = getelementptr inbounds nuw i8, ptr %0, i64 32
  %13 = load ptr, ptr %12, align 8
  %14 = load i32, ptr %7, align 4
  %switch.tableidx = add i32 %14, -1
  %15 = icmp ult i32 %switch.tableidx, 10
  br i1 %15, label %switch.lookup, label %_ZN10OpenSubdiv6v3_6_03Far12getPatchSizeENS1_15PatchDescriptorE.exit

switch.lookup:                                    ; preds = %2
  %16 = zext nneg i32 %switch.tableidx to i64
  %switch.gep = getelementptr inbounds [10 x i32], ptr @switch.table._ZNK10OpenSubdiv6v3_6_03Far10PatchTable18GetPatchFVarValuesEiii.5, i64 0, i64 %16
  %switch.load = load i32, ptr %switch.gep, align 4
  br label %_ZN10OpenSubdiv6v3_6_03Far12getPatchSizeENS1_15PatchDescriptorE.exit

_ZN10OpenSubdiv6v3_6_03Far12getPatchSizeENS1_15PatchDescriptorE.exit: ; preds = %2, %switch.lookup
  %.0.i.i.i = phi i32 [ %switch.load, %switch.lookup ], [ -1, %2 ]
  %17 = add nsw i32 %11, %9
  %18 = sext i32 %17 to i64
  %19 = getelementptr inbounds i32, ptr %13, i64 %18
  %.fca.0.insert = insertvalue { ptr, i32 } poison, ptr %19, 0
  %.fca.1.insert = insertvalue { ptr, i32 } %.fca.0.insert, i32 %.0.i.i.i, 1
  ret { ptr, i32 } %.fca.1.insert
}